ARM GAS  C:\Users\HP\AppData\Local\Temp\ccxMkOwq.s 			page 1


   1              		.syntax unified
   2              		.cpu cortex-m3
   3              		.fpu softvfp
   4              		.eabi_attribute 20, 1
   5              		.eabi_attribute 21, 1
   6              		.eabi_attribute 23, 3
   7              		.eabi_attribute 24, 1
   8              		.eabi_attribute 25, 1
   9              		.eabi_attribute 26, 1
  10              		.eabi_attribute 30, 1
  11              		.eabi_attribute 34, 1
  12              		.eabi_attribute 18, 4
  13              		.thumb
  14              		.syntax unified
  15              		.file	"main.c"
  16              		.text
  17              	.Ltext0:
  18              		.cfi_sections	.debug_frame
  19              		.section	.text.interruptUART,"ax",%progbits
  20              		.align	2
  21              		.global	interruptUART
  22              		.thumb
  23              		.thumb_func
  24              		.type	interruptUART, %function
  25              	interruptUART:
  26              	.LFB63:
  27              		.file 1 "main.c"
   1:main.c        **** #include "project.h"
   2:main.c        **** #include <stdbool.h>
   3:main.c        **** bool bandera=0;
   4:main.c        **** unsigned char basico[4]={1,2,4,8};
   5:main.c        **** unsigned char taxi[5]={1,2,4,8,16};
   6:main.c        **** unsigned char cera[6]={1,2,4,8,16,64};
   7:main.c        **** unsigned char motor[5]={1,2,4,8,32};
   8:main.c        **** unsigned char total[7]={1,2,4,8,16,32,64};
   9:main.c        **** unsigned char posicion=0;
  10:main.c        **** bool b_serial=false;
  11:main.c        **** unsigned char caracter=0;
  12:main.c        **** 
  13:main.c        **** CY_ISR(interruptUART)
  14:main.c        **** {
  28              		.loc 1 14 0
  29              		.cfi_startproc
  30              		@ args = 0, pretend = 0, frame = 0
  31              		@ frame_needed = 0, uses_anonymous_args = 0
  32 0000 10B5     		push	{r4, lr}
  33              		.cfi_def_cfa_offset 8
  34              		.cfi_offset 4, -8
  35              		.cfi_offset 14, -4
  15:main.c        ****     caracter=Serial_GetChar();
  36              		.loc 1 15 0
  37 0002 FFF7FEFF 		bl	Serial_GetChar
  38              	.LVL0:
  39 0006 034C     		ldr	r4, .L3
  40 0008 2070     		strb	r0, [r4]
  16:main.c        ****     Serial_PutChar(caracter);
  41              		.loc 1 16 0
ARM GAS  C:\Users\HP\AppData\Local\Temp\ccxMkOwq.s 			page 2


  42 000a FFF7FEFF 		bl	Serial_PutChar
  43              	.LVL1:
  17:main.c        ****     b_serial=true;
  44              		.loc 1 17 0
  45 000e 0123     		movs	r3, #1
  46 0010 6370     		strb	r3, [r4, #1]
  47 0012 10BD     		pop	{r4, pc}
  48              	.L4:
  49              		.align	2
  50              	.L3:
  51 0014 00000000 		.word	.LANCHOR0
  52              		.cfi_endproc
  53              	.LFE63:
  54              		.size	interruptUART, .-interruptUART
  55              		.section	.text.main,"ax",%progbits
  56              		.align	2
  57              		.global	main
  58              		.thumb
  59              		.thumb_func
  60              		.type	main, %function
  61              	main:
  62              	.LFB64:
  18:main.c        **** }
  19:main.c        **** int main(void)
  20:main.c        **** {
  63              		.loc 1 20 0
  64              		.cfi_startproc
  65              		@ Volatile: function does not return.
  66              		@ args = 0, pretend = 0, frame = 0
  67              		@ frame_needed = 0, uses_anonymous_args = 0
  68 0000 08B5     		push	{r3, lr}
  69              		.cfi_def_cfa_offset 8
  70              		.cfi_offset 3, -8
  71              		.cfi_offset 14, -4
  21:main.c        ****     Control_Write(0x00);
  72              		.loc 1 21 0
  73 0002 0020     		movs	r0, #0
  74 0004 FFF7FEFF 		bl	Control_Write
  75              	.LVL2:
  22:main.c        ****     posicion=0;
  76              		.loc 1 22 0
  77 0008 0022     		movs	r2, #0
  78 000a 5C4B     		ldr	r3, .L24
  79 000c 9A70     		strb	r2, [r3, #2]
  23:main.c        ****     CyGlobalIntEnable;
  80              		.loc 1 23 0
  81              		.syntax unified
  82              	@ 23 "main.c" 1
  83 000e 62B6     		CPSIE   i
  84              	@ 0 "" 2
  24:main.c        **** isrUART_StartEx(interruptUART);
  85              		.loc 1 24 0
  86              		.thumb
  87              		.syntax unified
  88 0010 5B48     		ldr	r0, .L24+4
  89 0012 FFF7FEFF 		bl	isrUART_StartEx
  90              	.LVL3:
ARM GAS  C:\Users\HP\AppData\Local\Temp\ccxMkOwq.s 			page 3


  25:main.c        **** Serial_Start();
  91              		.loc 1 25 0
  92 0016 FFF7FEFF 		bl	Serial_Start
  93              	.LVL4:
  94              	.L8:
  26:main.c        **** 
  27:main.c        ****     for(;;)
  28:main.c        ****     {
  29:main.c        ****         if(b_serial)
  95              		.loc 1 29 0
  96 001a 584B     		ldr	r3, .L24
  97 001c 5B78     		ldrb	r3, [r3, #1]	@ zero_extendqisi2
  98 001e 002B     		cmp	r3, #0
  99 0020 FBD0     		beq	.L8
  30:main.c        ****         {
  31:main.c        ****             b_serial=false;
 100              		.loc 1 31 0
 101 0022 564B     		ldr	r3, .L24
 102 0024 0022     		movs	r2, #0
 103 0026 5A70     		strb	r2, [r3, #1]
  32:main.c        ****             switch(caracter)
 104              		.loc 1 32 0
 105 0028 1B78     		ldrb	r3, [r3]	@ zero_extendqisi2
 106 002a 423B     		subs	r3, r3, #66
 107 002c 122B     		cmp	r3, #18
 108 002e F4D8     		bhi	.L8
 109 0030 01A2     		adr	r2, .L10
 110 0032 52F823F0 		ldr	pc, [r2, r3, lsl #2]
 111 0036 00BF     		.p2align 2
 112              	.L10:
 113 0038 9D000000 		.word	.L9+1
 114 003c F9000000 		.word	.L11+1
 115 0040 1B000000 		.word	.L8+1
 116 0044 1B000000 		.word	.L8+1
 117 0048 1B000000 		.word	.L8+1
 118 004c 1B000000 		.word	.L8+1
 119 0050 1B000000 		.word	.L8+1
 120 0054 1B000000 		.word	.L8+1
 121 0058 1B000000 		.word	.L8+1
 122 005c 1B000000 		.word	.L8+1
 123 0060 1B000000 		.word	.L8+1
 124 0064 27010000 		.word	.L12+1
 125 0068 1B000000 		.word	.L8+1
 126 006c 55010000 		.word	.L13+1
 127 0070 73010000 		.word	.L14+1
 128 0074 1B000000 		.word	.L8+1
 129 0078 1B000000 		.word	.L8+1
 130 007c 69010000 		.word	.L15+1
 131 0080 CB000000 		.word	.L16+1
 132              		.p2align 1
 133              	.L17:
  33:main.c        ****             {
  34:main.c        ****                 case 'B':
  35:main.c        ****                 while(posicion!=4){
  36:main.c        ****                 Control_Write(basico[posicion]);
 134              		.loc 1 36 0
 135 0084 3F4A     		ldr	r2, .L24+8
ARM GAS  C:\Users\HP\AppData\Local\Temp\ccxMkOwq.s 			page 4


 136 0086 D05C     		ldrb	r0, [r2, r3]	@ zero_extendqisi2
 137 0088 FFF7FEFF 		bl	Control_Write
 138              	.LVL5:
  37:main.c        ****                 posicion++;
 139              		.loc 1 37 0
 140 008c 3B4A     		ldr	r2, .L24
 141 008e 9378     		ldrb	r3, [r2, #2]	@ zero_extendqisi2
 142 0090 0133     		adds	r3, r3, #1
 143 0092 9370     		strb	r3, [r2, #2]
  38:main.c        ****                 CyDelay(2000);
 144              		.loc 1 38 0
 145 0094 4FF4FA60 		mov	r0, #2000
 146 0098 FFF7FEFF 		bl	CyDelay
 147              	.LVL6:
 148              	.L9:
  35:main.c        ****                 Control_Write(basico[posicion]);
 149              		.loc 1 35 0
 150 009c 374B     		ldr	r3, .L24
 151 009e 9B78     		ldrb	r3, [r3, #2]	@ zero_extendqisi2
 152 00a0 042B     		cmp	r3, #4
 153 00a2 EFD1     		bne	.L17
  39:main.c        ****                 }
  40:main.c        ****                 posicion=0;
 154              		.loc 1 40 0
 155 00a4 0020     		movs	r0, #0
 156 00a6 354B     		ldr	r3, .L24
 157 00a8 9870     		strb	r0, [r3, #2]
  41:main.c        ****                 Control_Write(0);
 158              		.loc 1 41 0
 159 00aa FFF7FEFF 		bl	Control_Write
 160              	.LVL7:
  42:main.c        ****                 break;
 161              		.loc 1 42 0
 162 00ae B4E7     		b	.L8
 163              	.L19:
  43:main.c        ****                 case 'T':
  44:main.c        ****                 while(posicion!=5){
  45:main.c        ****                 Control_Write(taxi[posicion]);
 164              		.loc 1 45 0
 165 00b0 344A     		ldr	r2, .L24+8
 166 00b2 1344     		add	r3, r3, r2
 167 00b4 1879     		ldrb	r0, [r3, #4]	@ zero_extendqisi2
 168 00b6 FFF7FEFF 		bl	Control_Write
 169              	.LVL8:
  46:main.c        ****                 posicion++;
 170              		.loc 1 46 0
 171 00ba 304A     		ldr	r2, .L24
 172 00bc 9378     		ldrb	r3, [r2, #2]	@ zero_extendqisi2
 173 00be 0133     		adds	r3, r3, #1
 174 00c0 9370     		strb	r3, [r2, #2]
  47:main.c        ****                 CyDelay(2000);
 175              		.loc 1 47 0
 176 00c2 4FF4FA60 		mov	r0, #2000
 177 00c6 FFF7FEFF 		bl	CyDelay
 178              	.LVL9:
 179              	.L16:
  44:main.c        ****                 Control_Write(taxi[posicion]);
ARM GAS  C:\Users\HP\AppData\Local\Temp\ccxMkOwq.s 			page 5


 180              		.loc 1 44 0
 181 00ca 2C4B     		ldr	r3, .L24
 182 00cc 9B78     		ldrb	r3, [r3, #2]	@ zero_extendqisi2
 183 00ce 052B     		cmp	r3, #5
 184 00d0 EED1     		bne	.L19
  48:main.c        ****                 }
  49:main.c        ****                 posicion=0;
 185              		.loc 1 49 0
 186 00d2 0020     		movs	r0, #0
 187 00d4 294B     		ldr	r3, .L24
 188 00d6 9870     		strb	r0, [r3, #2]
  50:main.c        ****                 Control_Write(0);
 189              		.loc 1 50 0
 190 00d8 FFF7FEFF 		bl	Control_Write
 191              	.LVL10:
  51:main.c        ****                 break;
 192              		.loc 1 51 0
 193 00dc 9DE7     		b	.L8
 194              	.L20:
  52:main.c        ****                 case 'C':
  53:main.c        ****                 while(posicion!=6){
  54:main.c        ****                 Control_Write(cera[posicion]);
 195              		.loc 1 54 0
 196 00de 294A     		ldr	r2, .L24+8
 197 00e0 1344     		add	r3, r3, r2
 198 00e2 187B     		ldrb	r0, [r3, #12]	@ zero_extendqisi2
 199 00e4 FFF7FEFF 		bl	Control_Write
 200              	.LVL11:
  55:main.c        ****                 posicion++;
 201              		.loc 1 55 0
 202 00e8 244A     		ldr	r2, .L24
 203 00ea 9378     		ldrb	r3, [r2, #2]	@ zero_extendqisi2
 204 00ec 0133     		adds	r3, r3, #1
 205 00ee 9370     		strb	r3, [r2, #2]
  56:main.c        ****                 CyDelay(2000);
 206              		.loc 1 56 0
 207 00f0 4FF4FA60 		mov	r0, #2000
 208 00f4 FFF7FEFF 		bl	CyDelay
 209              	.LVL12:
 210              	.L11:
  53:main.c        ****                 Control_Write(cera[posicion]);
 211              		.loc 1 53 0
 212 00f8 204B     		ldr	r3, .L24
 213 00fa 9B78     		ldrb	r3, [r3, #2]	@ zero_extendqisi2
 214 00fc 062B     		cmp	r3, #6
 215 00fe EED1     		bne	.L20
  57:main.c        ****                 }
  58:main.c        ****                 posicion=0;
 216              		.loc 1 58 0
 217 0100 0020     		movs	r0, #0
 218 0102 1E4B     		ldr	r3, .L24
 219 0104 9870     		strb	r0, [r3, #2]
  59:main.c        ****                 Control_Write(0);
 220              		.loc 1 59 0
 221 0106 FFF7FEFF 		bl	Control_Write
 222              	.LVL13:
  60:main.c        ****                 break;
ARM GAS  C:\Users\HP\AppData\Local\Temp\ccxMkOwq.s 			page 6


 223              		.loc 1 60 0
 224 010a 86E7     		b	.L8
 225              	.L21:
  61:main.c        ****                 case 'M':
  62:main.c        ****                 while(posicion!=5){
  63:main.c        ****                 Control_Write(motor[posicion]);
 226              		.loc 1 63 0
 227 010c 1D4A     		ldr	r2, .L24+8
 228 010e 1344     		add	r3, r3, r2
 229 0110 187D     		ldrb	r0, [r3, #20]	@ zero_extendqisi2
 230 0112 FFF7FEFF 		bl	Control_Write
 231              	.LVL14:
  64:main.c        ****                 posicion++;
 232              		.loc 1 64 0
 233 0116 194A     		ldr	r2, .L24
 234 0118 9378     		ldrb	r3, [r2, #2]	@ zero_extendqisi2
 235 011a 0133     		adds	r3, r3, #1
 236 011c 9370     		strb	r3, [r2, #2]
  65:main.c        ****                 CyDelay(2000);
 237              		.loc 1 65 0
 238 011e 4FF4FA60 		mov	r0, #2000
 239 0122 FFF7FEFF 		bl	CyDelay
 240              	.LVL15:
 241              	.L12:
  62:main.c        ****                 Control_Write(motor[posicion]);
 242              		.loc 1 62 0
 243 0126 154B     		ldr	r3, .L24
 244 0128 9B78     		ldrb	r3, [r3, #2]	@ zero_extendqisi2
 245 012a 052B     		cmp	r3, #5
 246 012c EED1     		bne	.L21
  66:main.c        ****                 }
  67:main.c        ****                 posicion=0;
 247              		.loc 1 67 0
 248 012e 0020     		movs	r0, #0
 249 0130 124B     		ldr	r3, .L24
 250 0132 9870     		strb	r0, [r3, #2]
  68:main.c        ****                 Control_Write(0);
 251              		.loc 1 68 0
 252 0134 FFF7FEFF 		bl	Control_Write
 253              	.LVL16:
  69:main.c        ****                 break;
 254              		.loc 1 69 0
 255 0138 6FE7     		b	.L8
 256              	.L22:
  70:main.c        ****                 case 'O':
  71:main.c        ****                 while(posicion!=7){
  72:main.c        ****                 Control_Write(total[posicion]);
 257              		.loc 1 72 0
 258 013a 124A     		ldr	r2, .L24+8
 259 013c 1344     		add	r3, r3, r2
 260 013e 187F     		ldrb	r0, [r3, #28]	@ zero_extendqisi2
 261 0140 FFF7FEFF 		bl	Control_Write
 262              	.LVL17:
  73:main.c        ****                 posicion++;
 263              		.loc 1 73 0
 264 0144 0D4A     		ldr	r2, .L24
 265 0146 9378     		ldrb	r3, [r2, #2]	@ zero_extendqisi2
ARM GAS  C:\Users\HP\AppData\Local\Temp\ccxMkOwq.s 			page 7


 266 0148 0133     		adds	r3, r3, #1
 267 014a 9370     		strb	r3, [r2, #2]
  74:main.c        ****                 CyDelay(2000);
 268              		.loc 1 74 0
 269 014c 4FF4FA60 		mov	r0, #2000
 270 0150 FFF7FEFF 		bl	CyDelay
 271              	.LVL18:
 272              	.L13:
  71:main.c        ****                 Control_Write(total[posicion]);
 273              		.loc 1 71 0
 274 0154 094B     		ldr	r3, .L24
 275 0156 9B78     		ldrb	r3, [r3, #2]	@ zero_extendqisi2
 276 0158 072B     		cmp	r3, #7
 277 015a EED1     		bne	.L22
  75:main.c        ****                 }
  76:main.c        ****                 posicion=0;
 278              		.loc 1 76 0
 279 015c 0020     		movs	r0, #0
 280 015e 074B     		ldr	r3, .L24
 281 0160 9870     		strb	r0, [r3, #2]
  77:main.c        ****                 Control_Write(0);
 282              		.loc 1 77 0
 283 0162 FFF7FEFF 		bl	Control_Write
 284              	.LVL19:
  78:main.c        ****                 break;
 285              		.loc 1 78 0
 286 0166 58E7     		b	.L8
 287              	.L15:
  79:main.c        ****                 case 'S':
  80:main.c        ****                 Control_Write(posicion);
 288              		.loc 1 80 0
 289 0168 044B     		ldr	r3, .L24
 290 016a 9878     		ldrb	r0, [r3, #2]	@ zero_extendqisi2
 291 016c FFF7FEFF 		bl	Control_Write
 292              	.LVL20:
  81:main.c        ****                 break;
 293              		.loc 1 81 0
 294 0170 53E7     		b	.L8
 295              	.L14:
  82:main.c        ****                 case 'P':
  83:main.c        ****                 Control_Write(0x00);
 296              		.loc 1 83 0
 297 0172 0020     		movs	r0, #0
 298 0174 FFF7FEFF 		bl	Control_Write
 299              	.LVL21:
  84:main.c        ****                 break;
 300              		.loc 1 84 0
 301 0178 4FE7     		b	.L8
 302              	.L25:
 303 017a 00BF     		.align	2
 304              	.L24:
 305 017c 00000000 		.word	.LANCHOR0
 306 0180 00000000 		.word	interruptUART
 307 0184 00000000 		.word	.LANCHOR1
 308              		.cfi_endproc
 309              	.LFE64:
 310              		.size	main, .-main
ARM GAS  C:\Users\HP\AppData\Local\Temp\ccxMkOwq.s 			page 8


 311              		.global	caracter
 312              		.global	b_serial
 313              		.global	posicion
 314              		.global	total
 315              		.global	motor
 316              		.global	cera
 317              		.global	taxi
 318              		.global	basico
 319              		.global	bandera
 320              		.data
 321              		.align	2
 322              		.set	.LANCHOR1,. + 0
 323              		.type	basico, %object
 324              		.size	basico, 4
 325              	basico:
 326 0000 01       		.byte	1
 327 0001 02       		.byte	2
 328 0002 04       		.byte	4
 329 0003 08       		.byte	8
 330              		.type	taxi, %object
 331              		.size	taxi, 5
 332              	taxi:
 333 0004 01       		.byte	1
 334 0005 02       		.byte	2
 335 0006 04       		.byte	4
 336 0007 08       		.byte	8
 337 0008 10       		.byte	16
 338 0009 000000   		.space	3
 339              		.type	cera, %object
 340              		.size	cera, 6
 341              	cera:
 342 000c 01       		.byte	1
 343 000d 02       		.byte	2
 344 000e 04       		.byte	4
 345 000f 08       		.byte	8
 346 0010 10       		.byte	16
 347 0011 40       		.byte	64
 348 0012 0000     		.space	2
 349              		.type	motor, %object
 350              		.size	motor, 5
 351              	motor:
 352 0014 01       		.byte	1
 353 0015 02       		.byte	2
 354 0016 04       		.byte	4
 355 0017 08       		.byte	8
 356 0018 20       		.byte	32
 357 0019 000000   		.space	3
 358              		.type	total, %object
 359              		.size	total, 7
 360              	total:
 361 001c 01       		.byte	1
 362 001d 02       		.byte	2
 363 001e 04       		.byte	4
 364 001f 08       		.byte	8
 365 0020 10       		.byte	16
 366 0021 20       		.byte	32
 367 0022 40       		.byte	64
ARM GAS  C:\Users\HP\AppData\Local\Temp\ccxMkOwq.s 			page 9


 368              		.bss
 369              		.set	.LANCHOR0,. + 0
 370              		.type	caracter, %object
 371              		.size	caracter, 1
 372              	caracter:
 373 0000 00       		.space	1
 374              		.type	b_serial, %object
 375              		.size	b_serial, 1
 376              	b_serial:
 377 0001 00       		.space	1
 378              		.type	posicion, %object
 379              		.size	posicion, 1
 380              	posicion:
 381 0002 00       		.space	1
 382              		.type	bandera, %object
 383              		.size	bandera, 1
 384              	bandera:
 385 0003 00       		.space	1
 386              		.text
 387              	.Letext0:
 388              		.file 2 "c:\\program files (x86)\\cypress\\psoc creator\\4.4\\psoc creator\\import\\gnu\\arm\\5.4.
 389              		.file 3 "c:\\program files (x86)\\cypress\\psoc creator\\4.4\\psoc creator\\import\\gnu\\arm\\5.4.
 390              		.file 4 "Generated_Source\\PSoC5/core_cm3.h"
 391              		.file 5 "Generated_Source\\PSoC5/Serial.h"
 392              		.file 6 "Generated_Source\\PSoC5/Control.h"
 393              		.file 7 "Generated_Source\\PSoC5/isrUART.h"
 394              		.file 8 "Generated_Source\\PSoC5/CyLib.h"